target datalayout = "e-m:e-p270:32:32-p271:32:32-p272:64:64-i64:64-i128:128-f80:128-n8:16:32:64-S128"
target triple = "x86_64-pc-linux-gnu"

%"class.icu_77::Normalizer" = type <{ %"class.icu_77::UObject", ptr, ptr, i32, i32, ptr, i32, i32, %"class.icu_77::UnicodeString", i32, [4 x i8] }>
%"class.icu_77::UObject" = type { ptr }
%"class.icu_77::UnicodeString" = type { %"class.icu_77::Replaceable", %"union.icu_77::UnicodeString::StackBufferOrFields" }
%"class.icu_77::Replaceable" = type { %"class.icu_77::UObject" }
%"union.icu_77::UnicodeString::StackBufferOrFields" = type { %struct.anon.0, [32 x i8] }
%struct.anon.0 = type { i16, i32, i32, ptr }
%struct.anon = type { i16, [27 x i16] }
%"class.icu_77::ConstChar16Ptr" = type { ptr }

@_ZTVN6icu_7710NormalizerE = unnamed_addr constant { [5 x ptr] } { [5 x ptr] [ptr null, ptr @_ZTIN6icu_7710NormalizerE, ptr @_ZN6icu_7710NormalizerD1Ev, ptr @_ZN6icu_7710NormalizerD0Ev, ptr @_ZNK6icu_7710Normalizer17getDynamicClassIDEv] }, align 8
@_ZTVN6icu_777UObjectE = available_externally unnamed_addr constant { [5 x ptr] } { [5 x ptr] [ptr null, ptr @_ZTIN6icu_777UObjectE, ptr @_ZN6icu_777UObjectD1Ev, ptr @_ZN6icu_777UObjectD0Ev, ptr @_ZNK6icu_777UObject17getDynamicClassIDEv] }, align 8

; Function Attrs: inlinehint mustprogress nounwind uwtable
define linkonce_odr void @_ZN6icu_7711ReplaceableC2Ev(ptr noundef nonnull align 8 dereferenceable(8) %0) unnamed_addr #3 comdat align 2 {
  %2 = alloca ptr, align 8
  store ptr %0, ptr %2, align 8, !tbaa !58
  %3 = load ptr, ptr %2, align 8
  call void @_ZN6icu_777UObjectC2Ev(ptr noundef nonnull align 8 dereferenceable(8) %3) #9
  store ptr getelementptr inbounds inrange(-16, 88) ({ [13 x ptr] }, ptr @_ZTVN6icu_7711ReplaceableE, i32 0, i32 0, i32 2), ptr %3, align 8, !tbaa !12
  ret void
}

; Function Attrs: inlinehint mustprogress uwtable
define linkonce_odr void @_ZN6icu_7713UnicodeStringC2Ev(ptr noundef nonnull align 8 dereferenceable(64) %0) unnamed_addr #6 comdat align 2 {
  %2 = alloca ptr, align 8
  store ptr %0, ptr %2, align 8, !tbaa !8
  %3 = load ptr, ptr %2, align 8
  call void @_ZN6icu_7711ReplaceableC2Ev(ptr noundef nonnull align 8 dereferenceable(8) %3)
  store ptr getelementptr inbounds inrange(-16, 88) ({ [13 x ptr] }, ptr @_ZTVN6icu_7713UnicodeStringE, i32 0, i32 0, i32 2), ptr %3, align 8, !tbaa !12
  %4 = getelementptr inbounds nuw %"class.icu_77::UnicodeString", ptr %3, i32 0, i32 1
  %5 = getelementptr inbounds nuw %struct.anon, ptr %4, i32 0, i32 0
  store i16 2, ptr %5, align 8, !tbaa !32
  ret void
}

; Function Attrs: inlinehint mustprogress nounwind uwtable
define linkonce_odr void @_ZN6icu_7714ConstChar16PtrD2Ev(ptr noundef nonnull align 8 dereferenceable(8) %0) unnamed_addr #3 comdat align 2 {
  %2 = alloca ptr, align 8
  store ptr %0, ptr %2, align 8, !tbaa !35
  %3 = load ptr, ptr %2, align 8
  %4 = getelementptr inbounds nuw %"class.icu_77::ConstChar16Ptr", ptr %3, i32 0, i32 0
  %5 = load ptr, ptr %4, align 8, !tbaa !41
  call void asm sideeffect "", "rm,~{memory},~{dirflag},~{fpsr},~{flags}"(ptr %5) #9, !srcloc !43
  ret void
}

; Function Attrs: inlinehint mustprogress nounwind uwtable
define linkonce_odr void @_ZN6icu_777UObjectC2Ev(ptr noundef nonnull align 8 dereferenceable(8) %0) unnamed_addr #3 comdat align 2 {
  %2 = alloca ptr, align 8
  store ptr %0, ptr %2, align 8, !tbaa !30
  %3 = load ptr, ptr %2, align 8
  store ptr getelementptr inbounds inrange(-16, 24) ({ [5 x ptr] }, ptr @_ZTVN6icu_777UObjectE, i32 0, i32 0, i32 2), ptr %3, align 8, !tbaa !12
  ret void
}

; Function Attrs: mustprogress uwtable
define void @_ZN6icu_7710NormalizerC2ENS_14ConstChar16PtrEi18UNormalizationMode(ptr noundef nonnull align 8 dereferenceable(116) %0, ptr noundef %1, i32 noundef %2, i32 noundef %3) unnamed_addr #1 align 2 personality ptr @__gxx_personality_v0 {
  %5 = alloca ptr, align 8
  %6 = alloca ptr, align 8
  %7 = alloca i32, align 4
  %8 = alloca i32, align 4
  %9 = alloca i1, align 1
  %10 = alloca %"class.icu_77::ConstChar16Ptr", align 8
  %11 = alloca i1, align 1
  %12 = alloca ptr, align 8
  %13 = alloca i32, align 4
  store ptr %0, ptr %5, align 8, !tbaa !3
  store ptr %1, ptr %6, align 8, !tbaa !35
  store i32 %2, ptr %7, align 4, !tbaa !37
  store i32 %3, ptr %8, align 4, !tbaa !10
  %14 = load ptr, ptr %5, align 8
  %15 = getelementptr inbounds i8, ptr %14, i64 0
  call void @llvm.memset.p0.i64(ptr align 8 %15, i8 0, i64 8, i1 false)
  call void @_ZN6icu_777UObjectC2Ev(ptr noundef nonnull align 8 dereferenceable(8) %14) #9
  store ptr getelementptr inbounds inrange(-16, 24) ({ [5 x ptr] }, ptr @_ZTVN6icu_7710NormalizerE, i32 0, i32 0, i32 2), ptr %14, align 8, !tbaa !12
  %16 = getelementptr inbounds nuw %"class.icu_77::Normalizer", ptr %14, i32 0, i32 1
  store ptr null, ptr %16, align 8, !tbaa !14
  %17 = getelementptr inbounds nuw %"class.icu_77::Normalizer", ptr %14, i32 0, i32 2
  store ptr null, ptr %17, align 8, !tbaa !23
  %18 = getelementptr inbounds nuw %"class.icu_77::Normalizer", ptr %14, i32 0, i32 3
  %19 = load i32, ptr %8, align 4, !tbaa !10
  store i32 %19, ptr %18, align 8, !tbaa !24
  %20 = getelementptr inbounds nuw %"class.icu_77::Normalizer", ptr %14, i32 0, i32 4
  store i32 0, ptr %20, align 4, !tbaa !25
  %21 = getelementptr inbounds nuw %"class.icu_77::Normalizer", ptr %14, i32 0, i32 5
  %22 = call noundef ptr @_ZN6icu_777UMemorynwEm(i64 noundef 32) #9
  %23 = icmp eq ptr %22, null
  store i1 false, ptr %9, align 1
  store i1 false, ptr %11, align 1
  br i1 %23, label %27, label %24

24:                                               ; preds = %4
  store i1 true, ptr %9, align 1
  call void @llvm.memcpy.p0.p0.i64(ptr align 8 %10, ptr align 8 %1, i64 8, i1 false), !tbaa.struct !38
  store i1 true, ptr %11, align 1
  %25 = load i32, ptr %7, align 4, !tbaa !37
  invoke void @_ZN6icu_7722UCharCharacterIteratorC1ENS_14ConstChar16PtrEi(ptr noundef nonnull align 8 dereferenceable(32) %22, ptr noundef %10, i32 noundef %25)
          to label %26 unwind label %38

26:                                               ; preds = %24
  store i1 false, ptr %9, align 1
  br label %27

27:                                               ; preds = %26, %4
  %28 = phi ptr [ %22, %26 ], [ null, %4 ]
  %29 = load i1, ptr %11, align 1
  br i1 %29, label %30, label %31

30:                                               ; preds = %27
  call void @_ZN6icu_7714ConstChar16PtrD2Ev(ptr noundef nonnull align 8 dereferenceable(8) %10) #9
  br label %31

31:                                               ; preds = %30, %27
  store ptr %28, ptr %21, align 8, !tbaa !26
  %32 = getelementptr inbounds nuw %"class.icu_77::Normalizer", ptr %14, i32 0, i32 6
  store i32 0, ptr %32, align 8, !tbaa !27
  %33 = getelementptr inbounds nuw %"class.icu_77::Normalizer", ptr %14, i32 0, i32 7
  store i32 0, ptr %33, align 4, !tbaa !28
  %34 = getelementptr inbounds nuw %"class.icu_77::Normalizer", ptr %14, i32 0, i32 8
  invoke void @_ZN6icu_7713UnicodeStringC2Ev(ptr noundef nonnull align 8 dereferenceable(64) %34)
          to label %35 unwind label %48

35:                                               ; preds = %31
  %36 = getelementptr inbounds nuw %"class.icu_77::Normalizer", ptr %14, i32 0, i32 9
  store i32 0, ptr %36, align 8, !tbaa !29
  invoke void @_ZN6icu_7710Normalizer4initEv(ptr noundef nonnull align 8 dereferenceable(116) %14)
          to label %37 unwind label %52

37:                                               ; preds = %35
  ret void

38:                                               ; preds = %24
  %39 = landingpad { ptr, i32 }
          cleanup
  %40 = extractvalue { ptr, i32 } %39, 0
  store ptr %40, ptr %12, align 8
  %41 = extractvalue { ptr, i32 } %39, 1
  store i32 %41, ptr %13, align 4
  %42 = load i1, ptr %11, align 1
  br i1 %42, label %43, label %44

43:                                               ; preds = %38
  call void @_ZN6icu_7714ConstChar16PtrD2Ev(ptr noundef nonnull align 8 dereferenceable(8) %10) #9
  br label %44

44:                                               ; preds = %43, %38
  %45 = load i1, ptr %9, align 1
  br i1 %45, label %46, label %47

46:                                               ; preds = %44
  call void @_ZN6icu_777UMemorydlEPv(ptr noundef %22) #9
  br label %47

47:                                               ; preds = %46, %44
  br label %56

48:                                               ; preds = %31
  %49 = landingpad { ptr, i32 }
          cleanup
  %50 = extractvalue { ptr, i32 } %49, 0
  store ptr %50, ptr %12, align 8
  %51 = extractvalue { ptr, i32 } %49, 1
  store i32 %51, ptr %13, align 4
  br label %56

52:                                               ; preds = %35
  %53 = landingpad { ptr, i32 }
          cleanup
  %54 = extractvalue { ptr, i32 } %53, 0
  store ptr %54, ptr %12, align 8
  %55 = extractvalue { ptr, i32 } %53, 1
  store i32 %55, ptr %13, align 4
  call void @_ZN6icu_7713UnicodeStringD1Ev(ptr noundef nonnull align 8 dereferenceable(64) %34) #9
  br label %56

56:                                               ; preds = %52, %48, %47
  call void @_ZN6icu_777UObjectD2Ev(ptr noundef nonnull align 8 dereferenceable(8) %14) #9
  br label %57

57:                                               ; preds = %56
  %58 = load ptr, ptr %12, align 8
  %59 = load i32, ptr %13, align 4
  %60 = insertvalue { ptr, i32 } poison, ptr %58, 0
  %61 = insertvalue { ptr, i32 } %60, i32 %59, 1
  resume { ptr, i32 } %61
}