; Function Attrs: mustprogress uwtable
define void @_ZN6icu_7710NormalizerC2ENS_14ConstChar16PtrEi18UNormalizationMode(ptr noundef nonnull align 8 dereferenceable(116) initializes((0, 32)) %0, ptr noundef readonly captures(none) %1, i32 noundef %2, i32 noundef %3) unnamed_addr #1 align 2 personality ptr @__gxx_personality_v0 {
  %5 = alloca %"class.icu_77::ConstChar16Ptr", align 8
  store ptr getelementptr inbounds nuw inrange(-16, 24) (i8, ptr @_ZTVN6icu_7710NormalizerE, i64 16), ptr %0, align 8, !tbaa !3
  %6 = getelementptr inbounds nuw i8, ptr %0, i64 8
  %7 = getelementptr inbounds nuw i8, ptr %0, i64 24
  tail call void @llvm.memset.p0.i64(ptr noundef nonnull align 8 dereferenceable(16) %6, i8 0, i64 16, i1 false)
  store i32 %3, ptr %7, align 8, !tbaa !6
  %8 = getelementptr inbounds nuw i8, ptr %0, i64 28
  store i32 0, ptr %8, align 4, !tbaa !18
  %9 = getelementptr inbounds nuw i8, ptr %0, i64 32
  %10 = tail call noundef ptr @_ZN6icu_777UMemorynwEm(i64 noundef 32) #10
  %.not = icmp eq ptr %10, null
  br i1 %.not, label %.thread, label %11

11:                                               ; preds = %4
  %12 = load i64, ptr %1, align 8, !tbaa !31
  store i64 %12, ptr %5, align 8, !tbaa !31
  invoke void @_ZN6icu_7722UCharCharacterIteratorC1ENS_14ConstChar16PtrEi(ptr noundef nonnull align 8 dereferenceable(32) %10, ptr noundef nonnull %5, i32 noundef %2)
          to label %13 unwind label %21

13:                                               ; preds = %11
  %14 = load ptr, ptr %5, align 8, !tbaa !33
  call void asm sideeffect "", "rm,~{memory},~{dirflag},~{fpsr},~{flags}"(ptr %14) #10, !srcloc !35
  br label %.thread

.thread:                                          ; preds = %4, %13
  store ptr %10, ptr %9, align 8, !tbaa !19
  %15 = getelementptr inbounds nuw i8, ptr %0, i64 40
  store i32 0, ptr %15, align 8, !tbaa !20
  %16 = getelementptr inbounds nuw i8, ptr %0, i64 44
  store i32 0, ptr %16, align 4, !tbaa !21
  %17 = getelementptr inbounds nuw i8, ptr %0, i64 48
  store ptr getelementptr inbounds nuw inrange(-16, 88) (i8, ptr @_ZTVN6icu_7713UnicodeStringE, i64 16), ptr %17, align 8, !tbaa !3
  %18 = getelementptr inbounds nuw i8, ptr %0, i64 56
  store i16 2, ptr %18, align 8, !tbaa !22
  %19 = getelementptr inbounds nuw i8, ptr %0, i64 112
  store i32 0, ptr %19, align 8, !tbaa !23
  invoke void @_ZN6icu_7710Normalizer4initEv(ptr noundef nonnull align 8 dereferenceable(116) %0)
          to label %20 unwind label %24

20:                                               ; preds = %.thread
  ret void

21:                                               ; preds = %11
  %22 = landingpad { ptr, i32 }
          cleanup
  %23 = load ptr, ptr %5, align 8, !tbaa !33
  call void asm sideeffect "", "rm,~{memory},~{dirflag},~{fpsr},~{flags}"(ptr %23) #10, !srcloc !35
  call void @_ZN6icu_777UMemorydlEPv(ptr noundef nonnull %10) #10
  br label %26

24:                                               ; preds = %.thread
  %25 = landingpad { ptr, i32 }
          cleanup
  call void @_ZN6icu_7713UnicodeStringD1Ev(ptr noundef nonnull align 8 dereferenceable(64) %17) #10
  br label %26

26:                                               ; preds = %21, %24
  %.pn = phi { ptr, i32 } [ %25, %24 ], [ %22, %21 ]
  call void @_ZN6icu_777UObjectD2Ev(ptr noundef nonnull align 8 dereferenceable(8) %0) #10
  resume { ptr, i32 } %.pn
}